target datalayout = "e-m:e-p270:32:32-p271:32:32-p272:64:64-i64:64-i128:128-f80:128-n8:16:32:64-S128"
target triple = "x86_64-unknown-linux-gnu"

%"class.(anonymous namespace)::mam_impl" = type { %"class.smt::mam", ptr, i8, %class.trail_stack, %"class.(anonymous namespace)::label_hasher", %"class.(anonymous namespace)::code_tree_manager", %"class.(anonymous namespace)::compiler", %"class.(anonymous namespace)::interpreter", %"class.(anonymous namespace)::code_tree_map", %class.ptr_vector.20, %class.ptr_vector.22, %class.ptr_vector.20, %class.svector.24, %class.svector.7, %class.svector.7, %class.vector.26, ptr, %class.region, [64 x [64 x %"struct.std::pair"]], [64 x [64 x ptr]], %class.pool, %class.vector.27, %class.ptr_vector.28, %class.obj_hashtable, ptr, ptr }
%"class.smt::mam" = type { ptr, ptr }
%class.trail_stack = type { %class.ptr_vector, %class.svector, %class.region }
%class.ptr_vector = type { %class.vector }
%class.vector = type { ptr }
%class.svector = type { %class.vector.0 }
%class.vector.0 = type { ptr }
%"class.(anonymous namespace)::label_hasher" = type { %class.svector.1 }
%class.svector.1 = type { %class.vector.2 }
%class.vector.2 = type { ptr }
%"class.(anonymous namespace)::code_tree_manager" = type { ptr, ptr, ptr }
%"class.(anonymous namespace)::compiler" = type { ptr, ptr, ptr, ptr, i8, %class.ptr_vector.3, %class.svector, %class.svector, %class.svector.5, ptr, ptr, ptr, i32, i8, %class.svector.7, %class.obj_map, %class.svector.9, %class.svector, %class.ptr_vector.11, %class.ptr_vector.11, %class.ptr_vector.11 }
%class.ptr_vector.3 = type { %class.vector.4 }
%class.vector.4 = type { ptr }
%class.svector.5 = type { %class.vector.6 }
%class.vector.6 = type { ptr }
%class.obj_map = type { %class.core_hashtable }
%class.core_hashtable = type <{ ptr, i32, i32, i32, [4 x i8] }>
%class.svector.9 = type { %class.vector.10 }
%class.vector.10 = type { ptr }
%class.ptr_vector.11 = type { %class.vector.12 }
%class.vector.12 = type { ptr }
%"class.(anonymous namespace)::interpreter" = type { ptr, ptr, ptr, i8, %class.ptr_vector.13, %class.ptr_vector.13, %class.ptr_vector.13, %class.svector.15, i32, ptr, i32, i32, i32, i32, ptr, ptr, ptr, ptr, %class.vector.17, i32, %class.ptr_vector.13, %class.svector, %class.svector, %class.pool }
%class.svector.15 = type { %class.vector.16 }
%class.vector.16 = type { ptr }
%class.vector.17 = type { ptr }
%class.ptr_vector.13 = type { %class.vector.14 }
%class.vector.14 = type { ptr }
%"class.(anonymous namespace)::code_tree_map" = type { ptr, ptr, %class.ptr_vector.20, ptr }
%class.ptr_vector.22 = type { %class.vector.23 }
%class.vector.23 = type { ptr }
%class.ptr_vector.20 = type { %class.vector.21 }
%class.vector.21 = type { ptr }
%class.svector.24 = type { %class.vector.25 }
%class.vector.25 = type { ptr }
%class.svector.7 = type { %class.vector.8 }
%class.vector.8 = type { ptr }
%class.vector.26 = type { ptr }
%class.region = type { ptr, ptr, ptr, ptr, ptr }
%"struct.std::pair" = type { ptr, ptr }
%class.pool = type { %class.ptr_vector.18 }
%class.ptr_vector.18 = type { %class.vector.19 }
%class.vector.19 = type { ptr }
%class.vector.27 = type { ptr }
%class.ptr_vector.28 = type { %class.vector.29 }
%class.vector.29 = type { ptr }
%class.obj_hashtable = type { %class.core_hashtable.base.31, [4 x i8] }
%class.core_hashtable.base.31 = type <{ ptr, i32, i32, i32 }>
%class.trail = type { ptr }
%"class.(anonymous namespace)::mam_impl::add_shared_enode_trail" = type { %class.trail, ptr, ptr }

; Function Attrs: mustprogress uwtable
define linkonce_odr hidden void @_ZN14core_hashtableI14obj_hash_entryIN3smt5enodeEE12obj_ptr_hashIS2_E6ptr_eqIS2_EE5eraseERKPS2_(ptr noundef nonnull align 8 dereferenceable(20) %this, ptr noundef nonnull align 8 dereferenceable(8) %e) #5 comdat align 2 {
entry:
  %this.addr = alloca ptr, align 8
  %e.addr = alloca ptr, align 8
  store ptr %this, ptr %this.addr, align 8
  store ptr %e, ptr %e.addr, align 8
  %this1 = load ptr, ptr %this.addr, align 8
  %0 = load ptr, ptr %e.addr, align 8
  call void @_ZN14core_hashtableI14obj_hash_entryIN3smt5enodeEE12obj_ptr_hashIS2_E6ptr_eqIS2_EE6removeERKPS2_(ptr noundef nonnull align 8 dereferenceable(20) %this1, ptr noundef nonnull align 8 dereferenceable(8) %0)
  ret void
}

; Function Attrs: mustprogress uwtable
define internal void @_ZN12_GLOBAL__N_18mam_impl22add_shared_enode_trail4undoEv(ptr noundef nonnull align 8 dereferenceable(24) %this) unnamed_addr #5 align 2 {
entry:
  %this.addr = alloca ptr, align 8
  store ptr %this, ptr %this.addr, align 8
  %this1 = load ptr, ptr %this.addr, align 8
  %m = getelementptr inbounds %"class.(anonymous namespace)::mam_impl::add_shared_enode_trail", ptr %this1, i32 0, i32 1
  %0 = load ptr, ptr %m, align 8
  %m_shared_enodes = getelementptr inbounds %"class.(anonymous namespace)::mam_impl", ptr %0, i32 0, i32 23
  %m_enode = getelementptr inbounds %"class.(anonymous namespace)::mam_impl::add_shared_enode_trail", ptr %this1, i32 0, i32 2
  call void @_ZN14core_hashtableI14obj_hash_entryIN3smt5enodeEE12obj_ptr_hashIS2_E6ptr_eqIS2_EE5eraseERKPS2_(ptr noundef nonnull align 8 dereferenceable(20) %m_shared_enodes, ptr noundef nonnull align 8 dereferenceable(8) %m_enode)
  ret void
}