; Function Attrs: mustprogress uwtable
define internal void @_ZN12_GLOBAL__N_18mam_impl22add_shared_enode_trail4undoEv(ptr noundef nonnull align 8 dereferenceable(24) %this) unnamed_addr #3 align 2 {
entry:
  %m = getelementptr inbounds i8, ptr %this, i64 8
  %0 = load ptr, ptr %m, align 8
  %m_shared_enodes = getelementptr inbounds i8, ptr %0, i64 98936
  %m_enode = getelementptr inbounds i8, ptr %this, i64 16
  tail call void @_ZN14core_hashtableI14obj_hash_entryIN3smt5enodeEE12obj_ptr_hashIS2_E6ptr_eqIS2_EE6removeERKPS2_(ptr noundef nonnull align 8 dereferenceable(20) %m_shared_enodes, ptr noundef nonnull align 8 dereferenceable(8) %m_enode)
  ret void
}